; Function Attrs: cold nounwind optsize uwtable
define i32 @ff_aac_decode_init_float(ptr noundef initializes((348, 352)) %0) local_unnamed_addr #0 {
  %2 = getelementptr inbounds nuw i8, ptr %0, i64 32
  %3 = load ptr, ptr %2, align 8, !tbaa !4
  %4 = getelementptr inbounds nuw i8, ptr %3, i64 34884
  store i32 0, ptr %4, align 4, !tbaa !27
  %5 = getelementptr inbounds nuw i8, ptr %0, i64 348
  store i32 8, ptr %5, align 4, !tbaa !35
  %6 = getelementptr inbounds nuw i8, ptr %3, i64 16
  store ptr @dequant_scalefactors, ptr %6, align 8, !tbaa !36
  %7 = getelementptr inbounds nuw i8, ptr %3, i64 24
  store ptr @apply_mid_side_stereo, ptr %7, align 8, !tbaa !37
  %8 = getelementptr inbounds nuw i8, ptr %3, i64 32
  store ptr @apply_intensity_stereo, ptr %8, align 8, !tbaa !38
  %9 = getelementptr inbounds nuw i8, ptr %3, i64 40
  store ptr @apply_tns, ptr %9, align 8, !tbaa !39
  %10 = getelementptr inbounds nuw i8, ptr %3, i64 48
  store ptr @apply_ltp, ptr %10, align 8, !tbaa !40
  %11 = getelementptr inbounds nuw i8, ptr %3, i64 56
  store ptr @update_ltp, ptr %11, align 8, !tbaa !41
  %12 = getelementptr inbounds nuw i8, ptr %3, i64 64
  store ptr @apply_prediction, ptr %12, align 8, !tbaa !42
  %13 = getelementptr inbounds nuw i8, ptr %3, i64 88
  store ptr @imdct_and_windowing, ptr %13, align 8, !tbaa !43
  %14 = getelementptr inbounds nuw i8, ptr %3, i64 96
  store ptr @imdct_and_windowing_768, ptr %14, align 8, !tbaa !44
  %15 = getelementptr inbounds nuw i8, ptr %3, i64 104
  store ptr @imdct_and_windowing_960, ptr %15, align 8, !tbaa !45
  %16 = getelementptr inbounds nuw i8, ptr %3, i64 112
  store ptr @imdct_and_windowing_ld, ptr %16, align 8, !tbaa !46
  %17 = getelementptr inbounds nuw i8, ptr %3, i64 120
  store ptr @imdct_and_windowing_eld, ptr %17, align 8, !tbaa !47
  %18 = getelementptr inbounds nuw i8, ptr %3, i64 72
  store ptr @apply_dependent_coupling, ptr %18, align 8, !tbaa !48
  %19 = getelementptr inbounds nuw i8, ptr %3, i64 80
  store ptr @apply_independent_coupling, ptr %19, align 8, !tbaa !49
  %20 = getelementptr inbounds nuw i8, ptr %3, i64 128
  store ptr @clip_output, ptr %20, align 8, !tbaa !50
  %21 = getelementptr inbounds nuw i8, ptr %3, i64 136
  store ptr @decode_spectrum_and_dequant, ptr %21, align 8, !tbaa !51
  %22 = getelementptr inbounds nuw i8, ptr %3, i64 144
  store ptr @decode_cce, ptr %22, align 8, !tbaa !52
  %23 = getelementptr inbounds nuw i8, ptr %3, i64 152
  store ptr @ff_aac_sbr_ctx_alloc_init, ptr %23, align 8, !tbaa !53
  %24 = getelementptr inbounds nuw i8, ptr %3, i64 160
  store ptr @ff_aac_sbr_decode_extension, ptr %24, align 8, !tbaa !54
  %25 = getelementptr inbounds nuw i8, ptr %3, i64 168
  store ptr @ff_aac_sbr_apply, ptr %25, align 8, !tbaa !55
  %26 = getelementptr inbounds nuw i8, ptr %3, i64 176
  store ptr @ff_aac_sbr_ctx_close, ptr %26, align 8, !tbaa !56
  %27 = getelementptr inbounds nuw i8, ptr %0, i64 64
  %28 = load i32, ptr %27, align 8, !tbaa !57
  %29 = and i32 %28, 8388608
  %30 = tail call ptr @avpriv_float_dsp_alloc(i32 noundef %29) #12
  %31 = getelementptr inbounds nuw i8, ptr %3, i64 9536
  store ptr %30, ptr %31, align 16, !tbaa !58
  %.not = icmp eq ptr %30, null
  br i1 %.not, label %35, label %32

32:                                               ; preds = %1
  %33 = tail call i32 @pthread_once(ptr noundef nonnull @ff_aac_decode_init_float.init_float_once, ptr noundef nonnull @init_tables_float_fn) #12
  %34 = tail call i32 @ff_aac_decode_init(ptr noundef nonnull %0) #12
  br label %35

35:                                               ; preds = %1, %32
  %.0 = phi i32 [ %34, %32 ], [ -12, %1 ]
  ret i32 %.0
}